target datalayout = "e-m:e-p270:32:32-p271:32:32-p272:64:64-i64:64-i128:128-f80:128-n8:16:32:64-S128"
target triple = "x86_64-pc-linux-gnu"

%"class.sentencepiece::ModelProtoDefaultTypeInternal" = type { %"class.google::protobuf::internal::ExplicitlyConstructed.4" }
%"class.google::protobuf::internal::ExplicitlyConstructed.4" = type { %"union.google::protobuf::internal::ExplicitlyConstructed<sentencepiece::ModelProto>::AlignedUnion" }
%"union.google::protobuf::internal::ExplicitlyConstructed<sentencepiece::ModelProto>::AlignedUnion" = type { i64, [96 x i8] }
%"class.google::protobuf::MessageLite" = type { ptr, %"class.google::protobuf::internal::InternalMetadata" }
%"class.google::protobuf::internal::InternalMetadata" = type { ptr }
%"class.google::protobuf::internal::ExtensionSet" = type { ptr, i16, i16, %"union.google::protobuf::internal::ExtensionSet::AllocatedData" }
%"union.google::protobuf::internal::ExtensionSet::AllocatedData" = type { ptr }
%"class.google::protobuf::internal::CachedSize" = type { %"struct.std::atomic" }
%"struct.std::atomic" = type { %"struct.std::__atomic_base" }
%"struct.std::__atomic_base" = type { i32 }
%"class.google::protobuf::internal::RepeatedPtrFieldBase" = type { ptr, i32, i32, ptr }
%"struct.google::protobuf::internal::SCCInfoBase" = type { %"struct.std::atomic", i32, i32, ptr }
%"class.google::protobuf::internal::HasBits.11" = type { [1 x i32] }
%"class.sentencepiece::ModelProto" = type { %"class.google::protobuf::MessageLite", %"class.google::protobuf::internal::ExtensionSet", %"class.google::protobuf::internal::HasBits.11", %"class.google::protobuf::internal::CachedSize", %"class.google::protobuf::RepeatedPtrField.13", ptr, ptr, ptr, ptr }
%"class.google::protobuf::RepeatedPtrField.13" = type { %"class.google::protobuf::internal::RepeatedPtrFieldBase" }

@_ZN13sentencepiece29_ModelProto_default_instance_E = global %"class.sentencepiece::ModelProtoDefaultTypeInternal" zeroinitializer, align 8
@.str.12 = private unnamed_addr constant [41 x i8] c"src/builtin_pb/sentencepiece_model.pb.cc\00", align 1
@_ZTVN6google8protobuf11MessageLiteE = external unnamed_addr constant { [16 x ptr] }, align 8

; Function Attrs: mustprogress nounwind uwtable
define linkonce_odr noundef i32 @_ZStanSt12memory_orderSt23__memory_order_modifier(i32 noundef %0, i32 noundef %1) #5 comdat {
  %3 = alloca i32, align 4
  %4 = alloca i32, align 4
  store i32 %0, ptr %3, align 4, !tbaa !232
  store i32 %1, ptr %4, align 4, !tbaa !236
  %5 = load i32, ptr %3, align 4, !tbaa !232
  %6 = load i32, ptr %4, align 4, !tbaa !236
  %7 = and i32 %5, %6
  ret i32 %7
}

; Function Attrs: alwaysinline mustprogress nounwind uwtable
define linkonce_odr noundef i32 @_ZNKSt13__atomic_baseIiE4loadESt12memory_order(ptr noundef nonnull align 4 dereferenceable(4) %0, i32 noundef %1) #8 comdat align 2 {
  %3 = alloca ptr, align 8
  %4 = alloca i32, align 4
  %5 = alloca i32, align 4
  %6 = alloca i32, align 4
  store ptr %0, ptr %3, align 8, !tbaa !241
  store i32 %1, ptr %4, align 4, !tbaa !232
  %7 = load ptr, ptr %3, align 8
  call void @llvm.lifetime.start.p0(i64 4, ptr %5) #3
  %8 = load i32, ptr %4, align 4, !tbaa !232
  %9 = call noundef i32 @_ZStanSt12memory_orderSt23__memory_order_modifier(i32 noundef %8, i32 noundef 65535)
  store i32 %9, ptr %5, align 4, !tbaa !232
  br label %10

10:                                               ; preds = %2
  br label %11

11:                                               ; preds = %10
  br label %12

12:                                               ; preds = %11
  br label %13

13:                                               ; preds = %12
  br label %14

14:                                               ; preds = %13
  br label %15

15:                                               ; preds = %14
  %16 = getelementptr inbounds nuw %"struct.std::__atomic_base", ptr %7, i32 0, i32 0
  %17 = load i32, ptr %4, align 4, !tbaa !232
  switch i32 %17, label %18 [
    i32 1, label %20
    i32 2, label %20
    i32 5, label %22
  ]

18:                                               ; preds = %15
  %19 = load atomic i32, ptr %16 monotonic, align 4
  store i32 %19, ptr %6, align 4
  br label %24

20:                                               ; preds = %15, %15
  %21 = load atomic i32, ptr %16 acquire, align 4
  store i32 %21, ptr %6, align 4
  br label %24

22:                                               ; preds = %15
  %23 = load atomic i32, ptr %16 seq_cst, align 4
  store i32 %23, ptr %6, align 4
  br label %24

24:                                               ; preds = %22, %20, %18
  %25 = load i32, ptr %6, align 4, !tbaa !7
  call void @llvm.lifetime.end.p0(i64 4, ptr %5) #3
  ret i32 %25
}

; Function Attrs: mustprogress nounwind uwtable
define linkonce_odr void @_ZNSt13__atomic_baseIiEC2Ei(ptr noundef nonnull align 4 dereferenceable(4) %0, i32 noundef %1) unnamed_addr #5 comdat align 2 {
  %3 = alloca ptr, align 8
  %4 = alloca i32, align 4
  store ptr %0, ptr %3, align 8, !tbaa !241
  store i32 %1, ptr %4, align 4, !tbaa !7
  %5 = load ptr, ptr %3, align 8
  %6 = getelementptr inbounds nuw %"struct.std::__atomic_base", ptr %5, i32 0, i32 0
  %7 = load i32, ptr %4, align 4, !tbaa !7
  store i32 %7, ptr %6, align 4, !tbaa !243
  ret void
}

; Function Attrs: inlinehint mustprogress uwtable
define linkonce_odr void @_ZN6google8protobuf8internal7InitSCCEPNS1_11SCCInfoBaseE(ptr noundef %0) #7 comdat {
  %2 = alloca ptr, align 8
  %3 = alloca i32, align 4
  store ptr %0, ptr %2, align 8, !tbaa !93
  call void @llvm.lifetime.start.p0(i64 4, ptr %3) #3
  %4 = load ptr, ptr %2, align 8, !tbaa !93
  %5 = getelementptr inbounds nuw %"struct.google::protobuf::internal::SCCInfoBase", ptr %4, i32 0, i32 0
  %6 = call noundef i32 @_ZNKSt13__atomic_baseIiE4loadESt12memory_order(ptr noundef nonnull align 4 dereferenceable(4) %5, i32 noundef 2) #3
  store i32 %6, ptr %3, align 4, !tbaa !7
  %7 = load i32, ptr %3, align 4, !tbaa !7
  %8 = icmp ne i32 %7, 0
  %9 = zext i1 %8 to i64
  %10 = call i64 @llvm.expect.i64(i64 %9, i64 0)
  %11 = icmp ne i64 %10, 0
  br i1 %11, label %12, label %14

12:                                               ; preds = %1
  %13 = load ptr, ptr %2, align 8, !tbaa !93
  call void @_ZN6google8protobuf8internal11InitSCCImplEPNS1_11SCCInfoBaseE(ptr noundef %13)
  br label %14

14:                                               ; preds = %12, %1
  call void @llvm.lifetime.end.p0(i64 4, ptr %3) #3
  ret void
}

; Function Attrs: inlinehint mustprogress nounwind uwtable
define linkonce_odr void @_ZN6google8protobuf8internal20RepeatedPtrFieldBaseC2EPNS0_5ArenaE(ptr noundef nonnull align 8 dereferenceable(24) %0, ptr noundef %1) unnamed_addr #9 comdat align 2 {
  %3 = alloca ptr, align 8
  %4 = alloca ptr, align 8
  store ptr %0, ptr %3, align 8, !tbaa !260
  store ptr %1, ptr %4, align 8, !tbaa !35
  %5 = load ptr, ptr %3, align 8
  %6 = getelementptr inbounds nuw %"class.google::protobuf::internal::RepeatedPtrFieldBase", ptr %5, i32 0, i32 0
  %7 = load ptr, ptr %4, align 8, !tbaa !35
  store ptr %7, ptr %6, align 8, !tbaa !267
  %8 = getelementptr inbounds nuw %"class.google::protobuf::internal::RepeatedPtrFieldBase", ptr %5, i32 0, i32 1
  store i32 0, ptr %8, align 8, !tbaa !263
  %9 = getelementptr inbounds nuw %"class.google::protobuf::internal::RepeatedPtrFieldBase", ptr %5, i32 0, i32 2
  store i32 0, ptr %9, align 4, !tbaa !266
  %10 = getelementptr inbounds nuw %"class.google::protobuf::internal::RepeatedPtrFieldBase", ptr %5, i32 0, i32 3
  store ptr null, ptr %10, align 8, !tbaa !262
  ret void
}

; Function Attrs: mustprogress nounwind uwtable
define linkonce_odr void @_ZNSt6atomicIiEC2Ei(ptr noundef nonnull align 4 dereferenceable(4) %0, i32 noundef %1) unnamed_addr #5 comdat align 2 {
  %3 = alloca ptr, align 8
  %4 = alloca i32, align 4
  store ptr %0, ptr %3, align 8, !tbaa !239
  store i32 %1, ptr %4, align 4, !tbaa !7
  %5 = load ptr, ptr %3, align 8
  %6 = load i32, ptr %4, align 4, !tbaa !7
  call void @_ZNSt13__atomic_baseIiEC2Ei(ptr noundef nonnull align 4 dereferenceable(4) %5, i32 noundef %6) #3
  ret void
}

; Function Attrs: mustprogress nounwind uwtable
define linkonce_odr void @_ZN6google8protobuf8internal16InternalMetadataC2EPNS0_5ArenaE(ptr noundef nonnull align 8 dereferenceable(8) %0, ptr noundef %1) unnamed_addr #5 comdat align 2 {
  %3 = alloca ptr, align 8
  %4 = alloca ptr, align 8
  store ptr %0, ptr %3, align 8, !tbaa !87
  store ptr %1, ptr %4, align 8, !tbaa !35
  %5 = load ptr, ptr %3, align 8
  %6 = getelementptr inbounds nuw %"class.google::protobuf::internal::InternalMetadata", ptr %5, i32 0, i32 0
  %7 = load ptr, ptr %4, align 8, !tbaa !35
  store ptr %7, ptr %6, align 8, !tbaa !238
  ret void
}

; Function Attrs: mustprogress nounwind uwtable
define linkonce_odr void @_ZN6google8protobuf11MessageLiteD2Ev(ptr noundef nonnull align 8 dereferenceable(16) %0) unnamed_addr #5 comdat align 2 {
  %2 = alloca ptr, align 8
  store ptr %0, ptr %2, align 8, !tbaa !39
  ret void
}

; Function Attrs: inlinehint mustprogress nounwind uwtable
define linkonce_odr void @_ZN13sentencepiece10ModelProto17RegisterArenaDtorEPN6google8protobuf5ArenaE(ptr noundef nonnull align 8 dereferenceable(104) %0, ptr noundef %1) #9 comdat align 2 {
  %3 = alloca ptr, align 8
  %4 = alloca ptr, align 8
  store ptr %0, ptr %3, align 8, !tbaa !202
  store ptr %1, ptr %4, align 8, !tbaa !35
  ret void
}

; Function Attrs: inlinehint mustprogress uwtable
define linkonce_odr void @_ZN13sentencepiece10ModelProto10SharedCtorEv(ptr noundef nonnull align 8 dereferenceable(104) %0) #7 comdat align 2 {
  %2 = alloca ptr, align 8
  store ptr %0, ptr %2, align 8, !tbaa !202
  %3 = load ptr, ptr %2, align 8
  call void @_ZN6google8protobuf8internal7InitSCCEPNS1_11SCCInfoBaseE(ptr noundef @scc_info_ModelProto_sentencepiece_5fmodel_2eproto)
  %4 = getelementptr inbounds nuw %"class.sentencepiece::ModelProto", ptr %3, i32 0, i32 5
  %5 = ptrtoint ptr %4 to i64
  %6 = ptrtoint ptr %3 to i64
  %7 = sub i64 %5, %6
  %8 = getelementptr inbounds nuw i8, ptr %3, i64 %7
  %9 = getelementptr inbounds nuw %"class.sentencepiece::ModelProto", ptr %3, i32 0, i32 8
  %10 = getelementptr inbounds nuw %"class.sentencepiece::ModelProto", ptr %3, i32 0, i32 5
  %11 = ptrtoint ptr %9 to i64
  %12 = ptrtoint ptr %10 to i64
  %13 = sub i64 %11, %12
  %14 = add i64 %13, 8
  call void @llvm.memset.p0.i64(ptr align 1 %8, i8 0, i64 %14, i1 false)
  ret void
}

; Function Attrs: inlinehint mustprogress nounwind uwtable
define linkonce_odr void @_ZN6google8protobuf16RepeatedPtrFieldIN13sentencepiece24ModelProto_SentencePieceEEC2EPNS0_5ArenaE(ptr noundef nonnull align 8 dereferenceable(24) %0, ptr noundef %1) unnamed_addr #9 comdat align 2 {
  %3 = alloca ptr, align 8
  %4 = alloca ptr, align 8
  store ptr %0, ptr %3, align 8, !tbaa !210
  store ptr %1, ptr %4, align 8, !tbaa !35
  %5 = load ptr, ptr %3, align 8
  %6 = load ptr, ptr %4, align 8, !tbaa !35
  call void @_ZN6google8protobuf8internal20RepeatedPtrFieldBaseC2EPNS0_5ArenaE(ptr noundef nonnull align 8 dereferenceable(24) %5, ptr noundef %6)
  ret void
}

; Function Attrs: inlinehint mustprogress nounwind uwtable
define linkonce_odr void @_ZN6google8protobuf8internal10CachedSizeC2Ev(ptr noundef nonnull align 4 dereferenceable(4) %0) unnamed_addr #9 comdat align 2 {
  %2 = alloca ptr, align 8
  store ptr %0, ptr %2, align 8, !tbaa !43
  %3 = load ptr, ptr %2, align 8
  %4 = getelementptr inbounds nuw %"class.google::protobuf::internal::CachedSize", ptr %3, i32 0, i32 0
  call void @_ZNSt6atomicIiEC2Ei(ptr noundef nonnull align 4 dereferenceable(4) %4, i32 noundef 0) #3
  ret void
}

; Function Attrs: alwaysinline mustprogress nounwind uwtable
define linkonce_odr void @_ZN6google8protobuf8internal7HasBitsILm1EEC2Ev(ptr noundef nonnull align 4 dereferenceable(4) %0) unnamed_addr #8 comdat align 2 {
  %2 = alloca ptr, align 8
  store ptr %0, ptr %2, align 8, !tbaa !163
  %3 = load ptr, ptr %2, align 8
  %4 = getelementptr inbounds nuw %"class.google::protobuf::internal::HasBits.11", ptr %3, i32 0, i32 0
  %5 = getelementptr inbounds i32, ptr %4, i64 1
  br label %6

6:                                                ; preds = %6, %1
  %7 = phi ptr [ %4, %1 ], [ %8, %6 ]
  store i32 0, ptr %7, align 4, !tbaa !7
  %8 = getelementptr inbounds i32, ptr %7, i64 1
  %9 = icmp eq ptr %8, %5
  br i1 %9, label %10, label %6

10:                                               ; preds = %6
  ret void
}

; Function Attrs: inlinehint mustprogress uwtable
define linkonce_odr void @_ZN6google8protobuf11MessageLiteC2EPNS0_5ArenaE(ptr noundef nonnull align 8 dereferenceable(16) %0, ptr noundef %1) unnamed_addr #7 comdat align 2 {
  %3 = alloca ptr, align 8
  %4 = alloca ptr, align 8
  store ptr %0, ptr %3, align 8, !tbaa !39
  store ptr %1, ptr %4, align 8, !tbaa !35
  %5 = load ptr, ptr %3, align 8
  store ptr getelementptr inbounds inrange(-16, 112) ({ [16 x ptr] }, ptr @_ZTVN6google8protobuf11MessageLiteE, i32 0, i32 0, i32 2), ptr %5, align 8, !tbaa !37
  %6 = getelementptr inbounds nuw %"class.google::protobuf::MessageLite", ptr %5, i32 0, i32 1
  %7 = load ptr, ptr %4, align 8, !tbaa !35
  call void @_ZN6google8protobuf8internal16InternalMetadataC2EPNS0_5ArenaE(ptr noundef nonnull align 8 dereferenceable(8) %6, ptr noundef %7)
  ret void
}

; Function Attrs: mustprogress uwtable
define void @_ZN13sentencepiece10ModelProtoC2EPN6google8protobuf5ArenaE(ptr noundef nonnull align 8 dereferenceable(104) %0, ptr noundef %1) unnamed_addr #4 align 2 personality ptr @__gxx_personality_v0 {
  %3 = alloca ptr, align 8
  %4 = alloca ptr, align 8
  %5 = alloca ptr, align 8
  %6 = alloca i32, align 4
  store ptr %0, ptr %3, align 8, !tbaa !202
  store ptr %1, ptr %4, align 8, !tbaa !35
  %7 = load ptr, ptr %3, align 8
  %8 = load ptr, ptr %4, align 8, !tbaa !35
  call void @_ZN6google8protobuf11MessageLiteC2EPNS0_5ArenaE(ptr noundef nonnull align 8 dereferenceable(16) %7, ptr noundef %8)
  store ptr getelementptr inbounds inrange(-16, 112) ({ [16 x ptr] }, ptr @_ZTVN13sentencepiece10ModelProtoE, i32 0, i32 0, i32 2), ptr %7, align 8, !tbaa !37
  %9 = getelementptr inbounds nuw %"class.sentencepiece::ModelProto", ptr %7, i32 0, i32 1
  %10 = load ptr, ptr %4, align 8, !tbaa !35
  invoke void @_ZN6google8protobuf8internal12ExtensionSetC1EPNS0_5ArenaE(ptr noundef nonnull align 8 dereferenceable(24) %9, ptr noundef %10)
          to label %11 unwind label %21

11:                                               ; preds = %2
  %12 = getelementptr inbounds nuw %"class.sentencepiece::ModelProto", ptr %7, i32 0, i32 2
  invoke void @_ZN6google8protobuf8internal7HasBitsILm1EEC2Ev(ptr noundef nonnull align 4 dereferenceable(4) %12)
          to label %13 unwind label %25

13:                                               ; preds = %11
  %14 = getelementptr inbounds nuw %"class.sentencepiece::ModelProto", ptr %7, i32 0, i32 3
  call void @_ZN6google8protobuf8internal10CachedSizeC2Ev(ptr noundef nonnull align 4 dereferenceable(4) %14) #3
  %15 = getelementptr inbounds nuw %"class.sentencepiece::ModelProto", ptr %7, i32 0, i32 4
  %16 = load ptr, ptr %4, align 8, !tbaa !35
  invoke void @_ZN6google8protobuf16RepeatedPtrFieldIN13sentencepiece24ModelProto_SentencePieceEEC2EPNS0_5ArenaE(ptr noundef nonnull align 8 dereferenceable(24) %15, ptr noundef %16)
          to label %17 unwind label %25

17:                                               ; preds = %13
  invoke void @_ZN13sentencepiece10ModelProto10SharedCtorEv(ptr noundef nonnull align 8 dereferenceable(104) %7)
          to label %18 unwind label %29

18:                                               ; preds = %17
  %19 = load ptr, ptr %4, align 8, !tbaa !35
  invoke void @_ZN13sentencepiece10ModelProto17RegisterArenaDtorEPN6google8protobuf5ArenaE(ptr noundef nonnull align 8 dereferenceable(104) %7, ptr noundef %19)
          to label %20 unwind label %29

20:                                               ; preds = %18
  ret void

21:                                               ; preds = %2
  %22 = landingpad { ptr, i32 }
          cleanup
  %23 = extractvalue { ptr, i32 } %22, 0
  store ptr %23, ptr %5, align 8
  %24 = extractvalue { ptr, i32 } %22, 1
  store i32 %24, ptr %6, align 4
  br label %34

25:                                               ; preds = %13, %11
  %26 = landingpad { ptr, i32 }
          cleanup
  %27 = extractvalue { ptr, i32 } %26, 0
  store ptr %27, ptr %5, align 8
  %28 = extractvalue { ptr, i32 } %26, 1
  store i32 %28, ptr %6, align 4
  br label %33

29:                                               ; preds = %18, %17
  %30 = landingpad { ptr, i32 }
          cleanup
  %31 = extractvalue { ptr, i32 } %30, 0
  store ptr %31, ptr %5, align 8
  %32 = extractvalue { ptr, i32 } %30, 1
  store i32 %32, ptr %6, align 4
  call void @_ZN6google8protobuf16RepeatedPtrFieldIN13sentencepiece24ModelProto_SentencePieceEED2Ev(ptr noundef nonnull align 8 dereferenceable(24) %15) #3
  br label %33

33:                                               ; preds = %29, %25
  call void @_ZN6google8protobuf8internal12ExtensionSetD1Ev(ptr noundef nonnull align 8 dereferenceable(24) %9) #3
  br label %34

34:                                               ; preds = %33, %21
  call void @_ZN6google8protobuf11MessageLiteD2Ev(ptr noundef nonnull align 8 dereferenceable(16) %7) #3
  br label %35

35:                                               ; preds = %34
  %36 = load ptr, ptr %5, align 8
  %37 = load i32, ptr %6, align 4
  %38 = insertvalue { ptr, i32 } poison, ptr %36, 0
  %39 = insertvalue { ptr, i32 } %38, i32 %37, 1
  resume { ptr, i32 } %39
}

; Function Attrs: inlinehint mustprogress uwtable
define linkonce_odr void @_ZN6google8protobuf8internal24OnShutdownDestroyMessageEPKv(ptr noundef %0) #7 comdat {
  %2 = alloca ptr, align 8
  store ptr %0, ptr %2, align 8, !tbaa !3
  %3 = load ptr, ptr %2, align 8, !tbaa !3
  call void @_ZN6google8protobuf8internal13OnShutdownRunEPFvPKvES3_(ptr noundef @_ZN6google8protobuf8internal14DestroyMessageEPKv, ptr noundef %3)
  ret void
}

; Function Attrs: inlinehint mustprogress uwtable
define linkonce_odr void @_ZN13sentencepiece10ModelProtoC2Ev(ptr noundef nonnull align 8 dereferenceable(104) %0) unnamed_addr #7 comdat align 2 {
  %2 = alloca ptr, align 8
  store ptr %0, ptr %2, align 8, !tbaa !202
  %3 = load ptr, ptr %2, align 8
  call void @_ZN13sentencepiece10ModelProtoC2EPN6google8protobuf5ArenaE(ptr noundef nonnull align 8 dereferenceable(104) %3, ptr noundef null)
  ret void
}

; Function Attrs: mustprogress uwtable
define internal void @_ZL61InitDefaultsscc_info_ModelProto_sentencepiece_5fmodel_2eprotov() #4 {
  %1 = alloca ptr, align 8
  call void @_ZN6google8protobuf8internal13VerifyVersionEiiPKc(i32 noundef 3014000, i32 noundef 3014000, ptr noundef @.str.12)
  call void @llvm.lifetime.start.p0(i64 8, ptr %1) #3
  store ptr @_ZN13sentencepiece29_ModelProto_default_instance_E, ptr %1, align 8, !tbaa !3
  %2 = load ptr, ptr %1, align 8, !tbaa !3
  call void @_ZN13sentencepiece10ModelProtoC2Ev(ptr noundef nonnull align 8 dereferenceable(104) %2)
  %3 = load ptr, ptr %1, align 8, !tbaa !3
  call void @_ZN6google8protobuf8internal24OnShutdownDestroyMessageEPKv(ptr noundef %3)
  call void @llvm.lifetime.end.p0(i64 8, ptr %1) #3
  ret void
}